target datalayout = "e-m:e-p270:32:32-p271:32:32-p272:64:64-i64:64-i128:128-f80:128-n8:16:32:64-S128"
target triple = "x86_64-pc-linux-gnu"

%struct.__va_list_tag = type { i32, i32, ptr, ptr }

; Function Attrs: noreturn nounwind sspstrong uwtable
define void @ossl_raise(i64 noundef %0, ptr noundef %1, ...) #4 {
  %3 = alloca i64, align 8
  %4 = alloca ptr, align 8
  %5 = alloca [1 x %struct.__va_list_tag], align 16
  %6 = alloca i64, align 8
  store i64 %0, ptr %3, align 8, !tbaa !6
  store ptr %1, ptr %4, align 8, !tbaa !19
  call void @llvm.lifetime.start.p0(i64 24, ptr %5) #22
  call void @llvm.lifetime.start.p0(i64 8, ptr %6) #22
  %7 = load ptr, ptr %4, align 8, !tbaa !19
  %8 = icmp ne ptr %7, null
  br i1 %8, label %9, label %15

9:                                                ; preds = %2
  %10 = getelementptr inbounds [1 x %struct.__va_list_tag], ptr %5, i64 0, i64 0
  call void @llvm.va_start.p0(ptr %10)
  %11 = load ptr, ptr %4, align 8, !tbaa !19
  %12 = getelementptr inbounds [1 x %struct.__va_list_tag], ptr %5, i64 0, i64 0
  %13 = call i64 @rb_vsprintf(ptr noundef %11, ptr noundef %12)
  store i64 %13, ptr %6, align 8, !tbaa !6
  %14 = getelementptr inbounds [1 x %struct.__va_list_tag], ptr %5, i64 0, i64 0
  call void @llvm.va_end.p0(ptr %14)
  br label %16

15:                                               ; preds = %2
  store i64 4, ptr %6, align 8, !tbaa !6
  br label %16

16:                                               ; preds = %15, %9
  %17 = load i64, ptr %3, align 8, !tbaa !6
  %18 = load i64, ptr %6, align 8, !tbaa !6
  %19 = call i64 @ossl_make_error(i64 noundef %17, i64 noundef %18)
  call void @rb_exc_raise(i64 noundef %19) #23
  unreachable
}