; Function Attrs: noreturn nounwind sspstrong uwtable
define void @ossl_raise(i64 noundef %0, ptr noundef %1, ...) local_unnamed_addr #3 {
  %3 = alloca [1 x %struct.__va_list_tag], align 16
  call void @llvm.lifetime.start.p0(i64 24, ptr nonnull %3) #15
  %.not = icmp eq ptr %1, null
  br i1 %.not, label %6, label %4

4:                                                ; preds = %2
  call void @llvm.va_start.p0(ptr nonnull %3)
  %5 = call i64 @rb_vsprintf(ptr noundef nonnull %1, ptr noundef nonnull %3) #15
  call void @llvm.va_end.p0(ptr nonnull %3)
  br label %6

6:                                                ; preds = %2, %4
  %.0 = phi i64 [ %5, %4 ], [ 4, %2 ]
  %7 = call i64 @ossl_make_error(i64 noundef %0, i64 noundef %.0)
  call void @rb_exc_raise(i64 noundef %7) #18
  unreachable
}